; Function Attrs: mustprogress nounwind uwtable
define hidden void @_ZN5osgeo4proj22CPLJSonStreamingWriterD2Ev(ptr noundef nonnull align 8 dereferenceable(153) %0) unnamed_addr #4 align 2 personality ptr @__gxx_personality_v0 {
  %2 = getelementptr inbounds i8, ptr %0, i64 128
  %3 = load ptr, ptr %2, align 8
  %.not.i.i.i = icmp eq ptr %3, null
  br i1 %.not.i.i.i, label %_ZNSt6vectorIN5osgeo4proj22CPLJSonStreamingWriter5StateESaIS3_EED2Ev.exit, label %4

4:                                                ; preds = %1
  tail call void @_ZdlPv(ptr noundef nonnull %3) #14
  br label %_ZNSt6vectorIN5osgeo4proj22CPLJSonStreamingWriter5StateESaIS3_EED2Ev.exit

_ZNSt6vectorIN5osgeo4proj22CPLJSonStreamingWriter5StateESaIS3_EED2Ev.exit: ; preds = %1, %4
  %5 = getelementptr inbounds i8, ptr %0, i64 88
  tail call void @_ZNSt7__cxx1112basic_stringIcSt11char_traitsIcESaIcEED1Ev(ptr noundef nonnull align 8 dereferenceable(32) %5) #13
  %6 = getelementptr inbounds i8, ptr %0, i64 56
  tail call void @_ZNSt7__cxx1112basic_stringIcSt11char_traitsIcESaIcEED1Ev(ptr noundef nonnull align 8 dereferenceable(32) %6) #13
  tail call void @_ZNSt7__cxx1112basic_stringIcSt11char_traitsIcESaIcEED1Ev(ptr noundef nonnull align 8 dereferenceable(32) %0) #13
  ret void
}